target datalayout = "e-m:e-p270:32:32-p271:32:32-p272:64:64-i64:64-i128:128-f80:128-n8:16:32:64-S128"
target triple = "x86_64-pc-linux-gnu"

%"class.(anonymous namespace)::fixedpoint32" = type { i32 }

; Function Attrs: mustprogress nounwind uwtable
define internal void @_ZN12_GLOBAL__N_112fixedpoint32C2Ei(ptr noundef nonnull align 4 dereferenceable(4) %0, i32 noundef %1) unnamed_addr #4 align 2 {
  %3 = alloca ptr, align 8
  %4 = alloca i32, align 4
  store ptr %0, ptr %3, align 8, !tbaa !71
  store i32 %1, ptr %4, align 4, !tbaa !3
  %5 = load ptr, ptr %3, align 8
  %6 = getelementptr inbounds nuw %"class.(anonymous namespace)::fixedpoint32", ptr %5, i32 0, i32 0
  %7 = load i32, ptr %4, align 4, !tbaa !3
  store i32 %7, ptr %6, align 4, !tbaa !1022
  ret void
}

; Function Attrs: inlinehint mustprogress nounwind uwtable
define internal noundef i32 @_ZN2cvL13saturate_castIiEET_l(i64 noundef %0) #5 {
  %2 = alloca i64, align 8
  store i64 %0, ptr %2, align 8, !tbaa !10
  %3 = load i64, ptr %2, align 8, !tbaa !10
  %4 = sub nsw i64 %3, -2147483648
  %5 = icmp ule i64 %4, 4294967295
  br i1 %5, label %6, label %8

6:                                                ; preds = %1
  %7 = load i64, ptr %2, align 8, !tbaa !10
  br label %13

8:                                                ; preds = %1
  %9 = load i64, ptr %2, align 8, !tbaa !10
  %10 = icmp sgt i64 %9, 0
  %11 = select i1 %10, i32 2147483647, i32 -2147483648
  %12 = sext i32 %11 to i64
  br label %13

13:                                               ; preds = %8, %6
  %14 = phi i64 [ %7, %6 ], [ %12, %8 ]
  %15 = trunc i64 %14 to i32
  ret i32 %15
}

; Function Attrs: alwaysinline mustprogress nounwind uwtable
define internal noundef nonnull align 4 dereferenceable(4) ptr @_ZN12_GLOBAL__N_112fixedpoint32aSERKa(ptr noundef nonnull align 4 dereferenceable(4) %0, ptr noundef nonnull align 1 dereferenceable(1) %1) #16 align 2 {
  %3 = alloca ptr, align 8
  %4 = alloca ptr, align 8
  store ptr %0, ptr %3, align 8, !tbaa !71
  store ptr %1, ptr %4, align 8, !tbaa !7
  %5 = load ptr, ptr %3, align 8
  %6 = load ptr, ptr %4, align 8, !tbaa !7
  %7 = load i8, ptr %6, align 1, !tbaa !127
  %8 = sext i8 %7 to i32
  %9 = shl i32 %8, 16
  %10 = getelementptr inbounds nuw %"class.(anonymous namespace)::fixedpoint32", ptr %5, i32 0, i32 0
  store i32 %9, ptr %10, align 4, !tbaa !1022
  ret ptr %5
}

; Function Attrs: alwaysinline mustprogress uwtable
define internal void @_ZNK12_GLOBAL__N_112fixedpoint32plERKS0_(ptr dead_on_unwind noalias writable sret(%"class.(anonymous namespace)::fixedpoint32") align 4 %0, ptr noundef nonnull align 4 dereferenceable(4) %1, ptr noundef nonnull align 4 dereferenceable(4) %2) #18 align 2 {
  %4 = alloca ptr, align 8
  %5 = alloca ptr, align 8
  %6 = alloca ptr, align 8
  %7 = alloca i32, align 4
  store ptr %0, ptr %4, align 8
  store ptr %1, ptr %5, align 8, !tbaa !71
  store ptr %2, ptr %6, align 8, !tbaa !71
  %8 = load ptr, ptr %5, align 8
  call void @llvm.lifetime.start.p0(i64 4, ptr %7) #19
  %9 = getelementptr inbounds nuw %"class.(anonymous namespace)::fixedpoint32", ptr %8, i32 0, i32 0
  %10 = load i32, ptr %9, align 4, !tbaa !1022
  %11 = load ptr, ptr %6, align 8, !tbaa !71
  %12 = getelementptr inbounds nuw %"class.(anonymous namespace)::fixedpoint32", ptr %11, i32 0, i32 0
  %13 = load i32, ptr %12, align 4, !tbaa !1022
  %14 = add nsw i32 %10, %13
  store i32 %14, ptr %7, align 4, !tbaa !3
  %15 = getelementptr inbounds nuw %"class.(anonymous namespace)::fixedpoint32", ptr %8, i32 0, i32 0
  %16 = load i32, ptr %15, align 4, !tbaa !1022
  %17 = load i32, ptr %7, align 4, !tbaa !3
  %18 = xor i32 %16, %17
  %19 = load ptr, ptr %6, align 8, !tbaa !71
  %20 = getelementptr inbounds nuw %"class.(anonymous namespace)::fixedpoint32", ptr %19, i32 0, i32 0
  %21 = load i32, ptr %20, align 4, !tbaa !1022
  %22 = load i32, ptr %7, align 4, !tbaa !3
  %23 = xor i32 %21, %22
  %24 = and i32 %18, %23
  %25 = sext i32 %24 to i64
  %26 = ashr i64 %25, 31
  %27 = icmp ne i64 %26, 0
  br i1 %27, label %28, label %32

28:                                               ; preds = %3
  %29 = load i32, ptr %7, align 4, !tbaa !3
  %30 = and i32 %29, -2147483648
  %31 = xor i32 %30, -1
  br label %34

32:                                               ; preds = %3
  %33 = load i32, ptr %7, align 4, !tbaa !3
  br label %34

34:                                               ; preds = %32, %28
  %35 = phi i32 [ %31, %28 ], [ %33, %32 ]
  call void @_ZN12_GLOBAL__N_112fixedpoint32C2Ei(ptr noundef nonnull align 4 dereferenceable(4) %0, i32 noundef %35)
  call void @llvm.lifetime.end.p0(i64 4, ptr %7) #19
  ret void
}

; Function Attrs: alwaysinline mustprogress uwtable
define internal void @_ZNK12_GLOBAL__N_112fixedpoint32mlERKa(ptr dead_on_unwind noalias writable sret(%"class.(anonymous namespace)::fixedpoint32") align 4 %0, ptr noundef nonnull align 4 dereferenceable(4) %1, ptr noundef nonnull align 1 dereferenceable(1) %2) #18 align 2 {
  %4 = alloca ptr, align 8
  %5 = alloca ptr, align 8
  %6 = alloca ptr, align 8
  store ptr %0, ptr %4, align 8
  store ptr %1, ptr %5, align 8, !tbaa !71
  store ptr %2, ptr %6, align 8, !tbaa !7
  %7 = load ptr, ptr %5, align 8
  %8 = getelementptr inbounds nuw %"class.(anonymous namespace)::fixedpoint32", ptr %7, i32 0, i32 0
  %9 = load i32, ptr %8, align 4, !tbaa !1022
  %10 = sext i32 %9 to i64
  %11 = load ptr, ptr %6, align 8, !tbaa !7
  %12 = load i8, ptr %11, align 1, !tbaa !127
  %13 = sext i8 %12 to i64
  %14 = mul nsw i64 %10, %13
  %15 = call noundef i32 @_ZN2cvL13saturate_castIiEET_l(i64 noundef %14)
  call void @_ZN12_GLOBAL__N_112fixedpoint32C2Ei(ptr noundef nonnull align 4 dereferenceable(4) %0, i32 noundef %15)
  ret void
}

; Function Attrs: alwaysinline mustprogress nounwind uwtable
define internal noundef nonnull align 4 dereferenceable(4) ptr @_ZN12_GLOBAL__N_112fixedpoint32aSERKS0_(ptr noundef nonnull align 4 dereferenceable(4) %0, ptr noundef nonnull align 4 dereferenceable(4) %1) #16 align 2 {
  %3 = alloca ptr, align 8
  %4 = alloca ptr, align 8
  store ptr %0, ptr %3, align 8, !tbaa !71
  store ptr %1, ptr %4, align 8, !tbaa !71
  %5 = load ptr, ptr %3, align 8
  %6 = load ptr, ptr %4, align 8, !tbaa !71
  %7 = getelementptr inbounds nuw %"class.(anonymous namespace)::fixedpoint32", ptr %6, i32 0, i32 0
  %8 = load i32, ptr %7, align 4, !tbaa !1022
  %9 = getelementptr inbounds nuw %"class.(anonymous namespace)::fixedpoint32", ptr %5, i32 0, i32 0
  store i32 %8, ptr %9, align 4, !tbaa !1022
  ret ptr %5
}

; Function Attrs: alwaysinline mustprogress nounwind uwtable
define internal void @_ZN12_GLOBAL__N_112fixedpoint32C2ERKa(ptr noundef nonnull align 4 dereferenceable(4) %0, ptr noundef nonnull align 1 dereferenceable(1) %1) unnamed_addr #16 align 2 {
  %3 = alloca ptr, align 8
  %4 = alloca ptr, align 8
  store ptr %0, ptr %3, align 8, !tbaa !71
  store ptr %1, ptr %4, align 8, !tbaa !7
  %5 = load ptr, ptr %3, align 8
  %6 = load ptr, ptr %4, align 8, !tbaa !7
  %7 = load i8, ptr %6, align 1, !tbaa !127
  %8 = sext i8 %7 to i32
  %9 = shl i32 %8, 16
  %10 = getelementptr inbounds nuw %"class.(anonymous namespace)::fixedpoint32", ptr %5, i32 0, i32 0
  store i32 %9, ptr %10, align 4, !tbaa !1022
  ret void
}

; Function Attrs: mustprogress uwtable
define internal void @_ZN12_GLOBAL__N_15hlineIaNS_12fixedpoint32ELi2ELb1ELi1EE8ResizeCnEPaiPiPS1_S5_iii(ptr noundef %0, i32 noundef %1, ptr noundef %2, ptr noundef %3, ptr noundef %4, i32 noundef %5, i32 noundef %6, i32 noundef %7) #0 align 2 {
  %9 = alloca ptr, align 8
  %10 = alloca i32, align 4
  %11 = alloca ptr, align 8
  %12 = alloca ptr, align 8
  %13 = alloca ptr, align 8
  %14 = alloca i32, align 4
  %15 = alloca i32, align 4
  %16 = alloca i32, align 4
  %17 = alloca i32, align 4
  %18 = alloca %"class.(anonymous namespace)::fixedpoint32", align 4
  %19 = alloca ptr, align 8
  %20 = alloca %"class.(anonymous namespace)::fixedpoint32", align 4
  %21 = alloca %"class.(anonymous namespace)::fixedpoint32", align 4
  %22 = alloca %"class.(anonymous namespace)::fixedpoint32", align 4
  %23 = alloca i32, align 4
  store ptr %0, ptr %9, align 8, !tbaa !7
  store i32 %1, ptr %10, align 4, !tbaa !3
  store ptr %2, ptr %11, align 8, !tbaa !22
  store ptr %3, ptr %12, align 8, !tbaa !71
  store ptr %4, ptr %13, align 8, !tbaa !71
  store i32 %5, ptr %14, align 4, !tbaa !3
  store i32 %6, ptr %15, align 4, !tbaa !3
  store i32 %7, ptr %16, align 4, !tbaa !3
  call void @llvm.lifetime.start.p0(i64 4, ptr %17) #19
  store i32 0, ptr %17, align 4, !tbaa !3
  call void @llvm.lifetime.start.p0(i64 4, ptr %18) #19
  %24 = load ptr, ptr %9, align 8, !tbaa !7
  %25 = getelementptr inbounds i8, ptr %24, i64 0
  call void @_ZN12_GLOBAL__N_112fixedpoint32C2ERKa(ptr noundef nonnull align 4 dereferenceable(4) %18, ptr noundef nonnull align 1 dereferenceable(1) %25)
  br label %26

26:                                               ; preds = %34, %8
  %27 = load i32, ptr %17, align 4, !tbaa !3
  %28 = load i32, ptr %14, align 4, !tbaa !3
  %29 = icmp slt i32 %27, %28
  br i1 %29, label %30, label %39

30:                                               ; preds = %26
  %31 = load ptr, ptr %13, align 8, !tbaa !71
  %32 = getelementptr inbounds nuw %"class.(anonymous namespace)::fixedpoint32", ptr %31, i32 1
  store ptr %32, ptr %13, align 8, !tbaa !71
  %33 = call noundef nonnull align 4 dereferenceable(4) ptr @_ZN12_GLOBAL__N_112fixedpoint32aSERKS0_(ptr noundef nonnull align 4 dereferenceable(4) %31, ptr noundef nonnull align 4 dereferenceable(4) %18)
  br label %34

34:                                               ; preds = %30
  %35 = load i32, ptr %17, align 4, !tbaa !3
  %36 = add nsw i32 %35, 1
  store i32 %36, ptr %17, align 4, !tbaa !3
  %37 = load ptr, ptr %12, align 8, !tbaa !71
  %38 = getelementptr inbounds %"class.(anonymous namespace)::fixedpoint32", ptr %37, i64 2
  store ptr %38, ptr %12, align 8, !tbaa !71
  br label %26, !llvm.loop !1019

39:                                               ; preds = %26
  br label %40

40:                                               ; preds = %64, %39
  %41 = load i32, ptr %17, align 4, !tbaa !3
  %42 = load i32, ptr %15, align 4, !tbaa !3
  %43 = icmp slt i32 %41, %42
  br i1 %43, label %44, label %69

44:                                               ; preds = %40
  call void @llvm.lifetime.start.p0(i64 8, ptr %19) #19
  %45 = load ptr, ptr %9, align 8, !tbaa !7
  %46 = load ptr, ptr %11, align 8, !tbaa !22
  %47 = load i32, ptr %17, align 4, !tbaa !3
  %48 = sext i32 %47 to i64
  %49 = getelementptr inbounds i32, ptr %46, i64 %48
  %50 = load i32, ptr %49, align 4, !tbaa !3
  %51 = sext i32 %50 to i64
  %52 = getelementptr inbounds i8, ptr %45, i64 %51
  store ptr %52, ptr %19, align 8, !tbaa !7
  call void @llvm.lifetime.start.p0(i64 4, ptr %20) #19
  call void @llvm.lifetime.start.p0(i64 4, ptr %21) #19
  %53 = load ptr, ptr %12, align 8, !tbaa !71
  %54 = getelementptr inbounds %"class.(anonymous namespace)::fixedpoint32", ptr %53, i64 0
  %55 = load ptr, ptr %19, align 8, !tbaa !7
  %56 = getelementptr inbounds i8, ptr %55, i64 0
  call void @_ZNK12_GLOBAL__N_112fixedpoint32mlERKa(ptr dead_on_unwind writable sret(%"class.(anonymous namespace)::fixedpoint32") align 4 %21, ptr noundef nonnull align 4 dereferenceable(4) %54, ptr noundef nonnull align 1 dereferenceable(1) %56)
  call void @llvm.lifetime.start.p0(i64 4, ptr %22) #19
  %57 = load ptr, ptr %12, align 8, !tbaa !71
  %58 = getelementptr inbounds %"class.(anonymous namespace)::fixedpoint32", ptr %57, i64 1
  %59 = load ptr, ptr %19, align 8, !tbaa !7
  %60 = getelementptr inbounds i8, ptr %59, i64 1
  call void @_ZNK12_GLOBAL__N_112fixedpoint32mlERKa(ptr dead_on_unwind writable sret(%"class.(anonymous namespace)::fixedpoint32") align 4 %22, ptr noundef nonnull align 4 dereferenceable(4) %58, ptr noundef nonnull align 1 dereferenceable(1) %60)
  call void @_ZNK12_GLOBAL__N_112fixedpoint32plERKS0_(ptr dead_on_unwind writable sret(%"class.(anonymous namespace)::fixedpoint32") align 4 %20, ptr noundef nonnull align 4 dereferenceable(4) %21, ptr noundef nonnull align 4 dereferenceable(4) %22)
  %61 = load ptr, ptr %13, align 8, !tbaa !71
  %62 = getelementptr inbounds nuw %"class.(anonymous namespace)::fixedpoint32", ptr %61, i32 1
  store ptr %62, ptr %13, align 8, !tbaa !71
  %63 = call noundef nonnull align 4 dereferenceable(4) ptr @_ZN12_GLOBAL__N_112fixedpoint32aSERKS0_(ptr noundef nonnull align 4 dereferenceable(4) %61, ptr noundef nonnull align 4 dereferenceable(4) %20)
  call void @llvm.lifetime.end.p0(i64 4, ptr %22) #19
  call void @llvm.lifetime.end.p0(i64 4, ptr %21) #19
  call void @llvm.lifetime.end.p0(i64 4, ptr %20) #19
  call void @llvm.lifetime.end.p0(i64 8, ptr %19) #19
  br label %64

64:                                               ; preds = %44
  %65 = load i32, ptr %17, align 4, !tbaa !3
  %66 = add nsw i32 %65, 1
  store i32 %66, ptr %17, align 4, !tbaa !3
  %67 = load ptr, ptr %12, align 8, !tbaa !71
  %68 = getelementptr inbounds %"class.(anonymous namespace)::fixedpoint32", ptr %67, i64 2
  store ptr %68, ptr %12, align 8, !tbaa !71
  br label %40, !llvm.loop !1020

69:                                               ; preds = %40
  %70 = load i32, ptr %17, align 4, !tbaa !3
  %71 = load i32, ptr %16, align 4, !tbaa !3
  %72 = icmp sge i32 %70, %71
  br i1 %72, label %73, label %74

73:                                               ; preds = %69
  store i32 1, ptr %23, align 4
  br label %98

74:                                               ; preds = %69
  %75 = load ptr, ptr %9, align 8, !tbaa !7
  %76 = load ptr, ptr %11, align 8, !tbaa !22
  %77 = load i32, ptr %16, align 4, !tbaa !3
  %78 = sub nsw i32 %77, 1
  %79 = sext i32 %78 to i64
  %80 = getelementptr inbounds i32, ptr %76, i64 %79
  %81 = load i32, ptr %80, align 4, !tbaa !3
  %82 = sext i32 %81 to i64
  %83 = getelementptr inbounds i8, ptr %75, i64 %82
  %84 = getelementptr inbounds i8, ptr %83, i64 0
  %85 = call noundef nonnull align 4 dereferenceable(4) ptr @_ZN12_GLOBAL__N_112fixedpoint32aSERKa(ptr noundef nonnull align 4 dereferenceable(4) %18, ptr noundef nonnull align 1 dereferenceable(1) %84)
  br label %86

86:                                               ; preds = %94, %74
  %87 = load i32, ptr %17, align 4, !tbaa !3
  %88 = load i32, ptr %16, align 4, !tbaa !3
  %89 = icmp slt i32 %87, %88
  br i1 %89, label %90, label %97

90:                                               ; preds = %86
  %91 = load ptr, ptr %13, align 8, !tbaa !71
  %92 = getelementptr inbounds nuw %"class.(anonymous namespace)::fixedpoint32", ptr %91, i32 1
  store ptr %92, ptr %13, align 8, !tbaa !71
  %93 = call noundef nonnull align 4 dereferenceable(4) ptr @_ZN12_GLOBAL__N_112fixedpoint32aSERKS0_(ptr noundef nonnull align 4 dereferenceable(4) %91, ptr noundef nonnull align 4 dereferenceable(4) %18)
  br label %94

94:                                               ; preds = %90
  %95 = load i32, ptr %17, align 4, !tbaa !3
  %96 = add nsw i32 %95, 1
  store i32 %96, ptr %17, align 4, !tbaa !3
  br label %86, !llvm.loop !1021

97:                                               ; preds = %86
  store i32 0, ptr %23, align 4
  br label %98

98:                                               ; preds = %97, %73
  call void @llvm.lifetime.end.p0(i64 4, ptr %18) #19
  call void @llvm.lifetime.end.p0(i64 4, ptr %17) #19
  %99 = load i32, ptr %23, align 4
  switch i32 %99, label %101 [
    i32 0, label %100
    i32 1, label %100
  ]

100:                                              ; preds = %98, %98
  ret void

101:                                              ; preds = %98
  unreachable
}

; Function Attrs: mustprogress uwtable
define internal void @_ZN12_GLOBAL__N_113hlineResizeCnIaNS_12fixedpoint32ELi2ELb1ELi1EEEvPT_iPiPT0_S6_iii(ptr noundef %0, i32 noundef %1, ptr noundef %2, ptr noundef %3, ptr noundef %4, i32 noundef %5, i32 noundef %6, i32 noundef %7) #0 {
  %9 = alloca ptr, align 8
  %10 = alloca i32, align 4
  %11 = alloca ptr, align 8
  %12 = alloca ptr, align 8
  %13 = alloca ptr, align 8
  %14 = alloca i32, align 4
  %15 = alloca i32, align 4
  %16 = alloca i32, align 4
  store ptr %0, ptr %9, align 8, !tbaa !7
  store i32 %1, ptr %10, align 4, !tbaa !3
  store ptr %2, ptr %11, align 8, !tbaa !22
  store ptr %3, ptr %12, align 8, !tbaa !71
  store ptr %4, ptr %13, align 8, !tbaa !71
  store i32 %5, ptr %14, align 4, !tbaa !3
  store i32 %6, ptr %15, align 4, !tbaa !3
  store i32 %7, ptr %16, align 4, !tbaa !3
  %17 = load ptr, ptr %9, align 8, !tbaa !7
  %18 = load i32, ptr %10, align 4, !tbaa !3
  %19 = load ptr, ptr %11, align 8, !tbaa !22
  %20 = load ptr, ptr %12, align 8, !tbaa !71
  %21 = load ptr, ptr %13, align 8, !tbaa !71
  %22 = load i32, ptr %14, align 4, !tbaa !3
  %23 = load i32, ptr %15, align 4, !tbaa !3
  %24 = load i32, ptr %16, align 4, !tbaa !3
  call void @_ZN12_GLOBAL__N_15hlineIaNS_12fixedpoint32ELi2ELb1ELi1EE8ResizeCnEPaiPiPS1_S5_iii(ptr noundef %17, i32 noundef %18, ptr noundef %19, ptr noundef %20, ptr noundef %21, i32 noundef %22, i32 noundef %23, i32 noundef %24)
  ret void
}